target datalayout = "e-m:e-p270:32:32-p271:32:32-p272:64:64-i64:64-i128:128-f80:128-n8:16:32:64-S128"
target triple = "x86_64-pc-linux-gnu"

%struct.AVStream = type { ptr, i32, i32, ptr, ptr, %struct.AVRational, i64, i64, i64, i32, i32, %struct.AVRational, ptr, %struct.AVRational, %struct.AVPacket, i32, %struct.AVRational, i32 }
%struct.AVPacket = type { ptr, i64, i64, ptr, i32, i32, i32, ptr, i32, i64, i64, ptr, ptr, %struct.AVRational }
%struct.AVRational = type { i32, i32 }
%struct.AVCodecParameters = type { i32, i32, i32, ptr, i32, ptr, i32, i32, i64, i32, i32, i32, i32, i32, i32, %struct.AVRational, %struct.AVRational, i32, i32, i32, i32, i32, i32, i32, %struct.AVChannelLayout, i32, i32, i32, i32, i32, i32 }
%struct.AVChannelLayout = type { i32, i32, %union.anon.0, ptr }
%union.anon.0 = type { i64 }

@.str.20 = private unnamed_addr constant [14 x i8] c"aac_adtstoasc\00", align 1

; Function Attrs: alwaysinline nounwind willreturn memory(none) uwtable
define internal zeroext i16 @av_bswap16(i16 noundef zeroext %0) #4 {
  %2 = alloca i16, align 2
  store i16 %0, ptr %2, align 2, !tbaa !63
  %3 = load i16, ptr %2, align 2, !tbaa !63
  %4 = zext i16 %3 to i32
  %5 = ashr i32 %4, 8
  %6 = load i16, ptr %2, align 2, !tbaa !63
  %7 = zext i16 %6 to i32
  %8 = shl i32 %7, 8
  %9 = or i32 %5, %8
  %10 = trunc i32 %9 to i16
  store i16 %10, ptr %2, align 2, !tbaa !63
  %11 = load i16, ptr %2, align 2, !tbaa !63
  ret i16 %11
}

; Function Attrs: nounwind uwtable
define internal i32 @latm_check_bitstream(ptr noundef %0, ptr noundef %1, ptr noundef %2) #0 {
  %4 = alloca ptr, align 8
  %5 = alloca ptr, align 8
  %6 = alloca ptr, align 8
  %7 = alloca i32, align 4
  store ptr %0, ptr %4, align 8, !tbaa !4
  store ptr %1, ptr %5, align 8, !tbaa !26
  store ptr %2, ptr %6, align 8, !tbaa !41
  call void @llvm.lifetime.start.p0(i64 4, ptr %7) #8
  store i32 1, ptr %7, align 4, !tbaa !53
  %8 = load ptr, ptr %5, align 8, !tbaa !26
  %9 = getelementptr inbounds nuw %struct.AVStream, ptr %8, i32 0, i32 3
  %10 = load ptr, ptr %9, align 8, !tbaa !28
  %11 = getelementptr inbounds nuw %struct.AVCodecParameters, ptr %10, i32 0, i32 1
  %12 = load i32, ptr %11, align 4, !tbaa !36
  %13 = icmp eq i32 %12, 86018
  br i1 %13, label %14, label %32

14:                                               ; preds = %3
  %15 = load ptr, ptr %6, align 8, !tbaa !41
  %16 = getelementptr inbounds nuw %struct.AVPacket, ptr %15, i32 0, i32 4
  %17 = load i32, ptr %16, align 8, !tbaa !48
  %18 = icmp sgt i32 %17, 2
  br i1 %18, label %19, label %31

19:                                               ; preds = %14
  %20 = load ptr, ptr %6, align 8, !tbaa !41
  %21 = getelementptr inbounds nuw %struct.AVPacket, ptr %20, i32 0, i32 3
  %22 = load ptr, ptr %21, align 8, !tbaa !49
  %23 = load i16, ptr %22, align 1, !tbaa !50
  %24 = call zeroext i16 @av_bswap16(i16 noundef zeroext %23) #9
  %25 = zext i16 %24 to i32
  %26 = and i32 %25, 65520
  %27 = icmp eq i32 %26, 65520
  br i1 %27, label %28, label %31

28:                                               ; preds = %19
  %29 = load ptr, ptr %5, align 8, !tbaa !26
  %30 = call i32 @ff_stream_add_bitstream_filter(ptr noundef %29, ptr noundef @.str.20, ptr noundef null)
  store i32 %30, ptr %7, align 4, !tbaa !53
  br label %31

31:                                               ; preds = %28, %19, %14
  br label %32

32:                                               ; preds = %31, %3
  %33 = load i32, ptr %7, align 4, !tbaa !53
  call void @llvm.lifetime.end.p0(i64 4, ptr %7) #8
  ret i32 %33
}