; Function Attrs: nounwind uwtable
define internal i32 @latm_check_bitstream(ptr readnone captures(none) %0, ptr noundef %1, ptr noundef readonly captures(none) %2) #0 {
  %4 = getelementptr inbounds nuw i8, ptr %1, i64 16
  %5 = load ptr, ptr %4, align 8, !tbaa !26
  %6 = getelementptr inbounds nuw i8, ptr %5, i64 4
  %7 = load i32, ptr %6, align 4, !tbaa !33
  %8 = icmp eq i32 %7, 86018
  br i1 %8, label %9, label %21

9:                                                ; preds = %3
  %10 = getelementptr inbounds nuw i8, ptr %2, i64 32
  %11 = load i32, ptr %10, align 8, !tbaa !40
  %12 = icmp sgt i32 %11, 2
  br i1 %12, label %13, label %21

13:                                               ; preds = %9
  %14 = getelementptr inbounds nuw i8, ptr %2, i64 24
  %15 = load ptr, ptr %14, align 8, !tbaa !41
  %16 = load i16, ptr %15, align 1, !tbaa !42
  %17 = tail call i16 @llvm.bswap.i16(i16 %16)
  %18 = icmp ugt i16 %17, -17
  br i1 %18, label %19, label %21

19:                                               ; preds = %13
  %20 = tail call i32 @ff_stream_add_bitstream_filter(ptr noundef nonnull %1, ptr noundef nonnull @.str.20, ptr noundef null) #6
  br label %21

21:                                               ; preds = %9, %13, %19, %3
  %.0 = phi i32 [ %20, %19 ], [ 1, %13 ], [ 1, %9 ], [ 1, %3 ]
  ret i32 %.0
}